; Function Attrs: nounwind uwtable
define ptr @l___private_Lean_Data_PersistentArray_0__Lean_PersistentArray_foldlMAux___at___private_Lean_Meta_Tactic_Grind_PP_0__Lean_Meta_Grind_ppThresholds___spec__10(ptr noundef %0, ptr noundef %1, ptr noundef %2) local_unnamed_addr #0 {
  %4 = ptrtoint ptr %1 to i64
  %5 = and i64 %4, 1
  %.not.i81 = icmp eq i64 %5, 0
  br i1 %.not.i81, label %9, label %6

6:                                                ; preds = %3
  %7 = lshr i64 %4, 1
  %8 = trunc i64 %7 to i32
  br label %lean_obj_tag.exit

9:                                                ; preds = %3
  %10 = getelementptr i8, ptr %1, i64 4
  %.val.i = load i32, ptr %10, align 4
  %11 = lshr i32 %.val.i, 24
  br label %lean_obj_tag.exit

lean_obj_tag.exit:                                ; preds = %6, %9
  %.0.i82 = phi i32 [ %8, %6 ], [ %11, %9 ]
  %12 = icmp eq i32 %.0.i82, 0
  %13 = getelementptr inbounds nuw i8, ptr %1, i64 8
  %14 = load ptr, ptr %13, align 8, !tbaa !10
  %15 = getelementptr i8, ptr %14, i64 8
  %.val80 = load i64, ptr %15, align 8, !tbaa !12
  %.mask87 = and i64 %.val80, 9223372036854775807
  %.not86 = icmp eq i64 %.mask87, 0
  br i1 %12, label %lean_nat_lt.exit, label %lean_nat_lt.exit74

lean_nat_lt.exit:                                 ; preds = %lean_obj_tag.exit
  br i1 %.not86, label %lean_dec.exit53, label %lean_dec.exit49

lean_dec.exit53:                                  ; preds = %lean_nat_lt.exit
  %16 = ptrtoint ptr %0 to i64
  %17 = and i64 %16, 1
  %.not88 = icmp eq i64 %17, 0
  br i1 %.not88, label %18, label %lean_dec.exit52

18:                                               ; preds = %lean_dec.exit53
  %19 = load i32, ptr %0, align 4, !tbaa !4
  %20 = icmp sgt i32 %19, 1
  br i1 %20, label %21, label %23, !prof !9

21:                                               ; preds = %18
  %22 = add nsw i32 %19, -1
  store i32 %22, ptr %0, align 4, !tbaa !4
  br label %lean_dec.exit52

23:                                               ; preds = %18
  %.not.i54 = icmp eq i32 %19, 0
  br i1 %.not.i54, label %lean_dec.exit52, label %24

24:                                               ; preds = %23
  tail call void @lean_dec_ref_cold(ptr noundef nonnull %0) #4
  br label %lean_dec.exit52

lean_dec.exit49:                                  ; preds = %lean_nat_lt.exit
  %25 = tail call ptr @l_Array_foldlMUnsafe_fold___at___private_Lean_Meta_Tactic_Grind_PP_0__Lean_Meta_Grind_ppThresholds___spec__11(ptr noundef %0, ptr noundef nonnull %14, i64 noundef 0, i64 noundef %.mask87, ptr noundef %2)
  br label %lean_dec.exit52

lean_nat_lt.exit74:                               ; preds = %lean_obj_tag.exit
  br i1 %.not86, label %lean_dec.exit48, label %lean_dec.exit

lean_dec.exit48:                                  ; preds = %lean_nat_lt.exit74
  %26 = ptrtoint ptr %0 to i64
  %27 = and i64 %26, 1
  %.not85 = icmp eq i64 %27, 0
  br i1 %.not85, label %28, label %lean_dec.exit52

28:                                               ; preds = %lean_dec.exit48
  %29 = load i32, ptr %0, align 4, !tbaa !4
  %30 = icmp sgt i32 %29, 1
  br i1 %30, label %31, label %33, !prof !9

31:                                               ; preds = %28
  %32 = add nsw i32 %29, -1
  store i32 %32, ptr %0, align 4, !tbaa !4
  br label %lean_dec.exit52

33:                                               ; preds = %28
  %.not.i64 = icmp eq i32 %29, 0
  br i1 %.not.i64, label %lean_dec.exit52, label %34

34:                                               ; preds = %33
  tail call void @lean_dec_ref_cold(ptr noundef nonnull %0) #4
  br label %lean_dec.exit52

lean_dec.exit:                                    ; preds = %lean_nat_lt.exit74
  %35 = tail call ptr @l_Array_foldlMUnsafe_fold___at___private_Lean_Meta_Tactic_Grind_PP_0__Lean_Meta_Grind_ppThresholds___spec__12(ptr noundef %0, ptr noundef nonnull %14, i64 noundef 0, i64 noundef %.mask87, ptr noundef %2)
  br label %lean_dec.exit52

lean_dec.exit52:                                  ; preds = %lean_dec.exit48, %31, %33, %34, %lean_dec.exit53, %21, %23, %24, %lean_dec.exit, %lean_dec.exit49
  %.2 = phi ptr [ %25, %lean_dec.exit49 ], [ %35, %lean_dec.exit ], [ %2, %24 ], [ %2, %23 ], [ %2, %21 ], [ %2, %lean_dec.exit53 ], [ %2, %34 ], [ %2, %33 ], [ %2, %31 ], [ %2, %lean_dec.exit48 ]
  ret ptr %.2
}